; Listing generated by Microsoft (R) Optimizing Compiler Version 19.00.24215.1 

	TITLE	H:\QTproj\QtClassLibrary1\QtClassLibrary1\GeneratedFiles\Debug\moc_QtClassLibrary1.cpp
	.686P
	.XMM
	include listing.inc
	.model	flat

INCLUDELIB MSVCRTD
INCLUDELIB OLDNAMES

PUBLIC	?staticMetaObject@MyModuleForm@@2UQMetaObject@@B ; MyModuleForm::staticMetaObject
PUBLIC	?qt_static_metacall@MyModuleForm@@CAXPAVQObject@@W4Call@QMetaObject@@HPAPAX@Z ; MyModuleForm::qt_static_metacall
EXTRN	?staticMetaObject@WorkWidget@@2UQMetaObject@@B:BYTE ; WorkWidget::staticMetaObject
CONST	SEGMENT
$SG151590 DB	'H:\QT\5.9.1\msvc2015\include\QtCore/qmetatype.h', 00H
$SG151591 DB	'qRegisterNormalizedMetaType was called with a not normal'
	DB	'ized type name, please call qRegisterMetaType instead.', 00H
	ORG $+1
$SG151592 DB	'qRegisterNormalizedMetaType', 00H
	ORG $+4
?qt_meta_stringdata_MyModuleForm@@3Uqt_meta_stringdata_MyModuleForm_t@@B DD 0ffffffffH ; qt_meta_stringdata_MyModuleForm
	DD	0cH
	DD	00H
	DD	040H
	DD	0ffffffffH
	DD	07H
	DD	00H
	DD	03dH
	DD	0ffffffffH
	DD	00H
	DD	00H
	DD	035H
	DD	0ffffffffH
	DD	08H
	DD	00H
	DD	026H
	DB	'MyModuleForm', 00H, 'oneStep', 00H, 00H, 'allSteps', 00H
	ORG $+1
?qt_meta_data_MyModuleForm@@3QBIB DD 07H		; qt_meta_data_MyModuleForm
	DD	00H
	DD	00H
	DD	00H
	DD	02H
	DD	0eH
	DD	00H
	DD	00H
	DD	00H
	DD	00H
	DD	00H
	DD	00H
	DD	00H
	DD	00H
	DD	01H
	DD	00H
	DD	018H
	DD	02H
	DD	08H
	DD	03H
	DD	00H
	DD	019H
	DD	02H
	DD	08H
	DD	02bH
	DD	02bH
	DD	00H
$SG152760 DB	'H:\QT\5.9.1\msvc2015\include\QtCore/qmetatype.h', 00H
	ORG $+4
$SG152761 DB	'qRegisterNormalizedMetaType was called with a not normal'
	DB	'ized type name, please call qRegisterMetaType instead.', 00H
	ORG $+1
$SG152762 DB	'qRegisterNormalizedMetaType', 00H
	ORG $+4
?qt_meta_stringdata_MyHeader@@3Uqt_meta_stringdata_MyHeader_t@@B DD 0ffffffffH ; qt_meta_stringdata_MyHeader
	DD	08H
	DD	00H
	DD	040H
	DD	0ffffffffH
	DD	0bH
	DD	00H
	DD	039H
	DD	0ffffffffH
	DD	00H
	DD	00H
	DD	035H
	DD	0ffffffffH
	DD	0cH
	DD	00H
	DD	026H
	DB	'MyHeader', 00H, 'updateSizes', 00H, 00H, 'updateOffset', 00H
	ORG $+1
	ORG $+4
?qt_meta_data_MyHeader@@3QBIB DD 07H			; qt_meta_data_MyHeader
	DD	00H
	DD	00H
	DD	00H
	DD	02H
	DD	0eH
	DD	00H
	DD	00H
	DD	00H
	DD	00H
	DD	00H
	DD	00H
	DD	00H
	DD	00H
	DD	01H
	DD	00H
	DD	018H
	DD	02H
	DD	0aH
	DD	03H
	DD	00H
	DD	019H
	DD	02H
	DD	0aH
	DD	02bH
	DD	02bH
	DD	00H
$SG149807 DB	'H:\QT\5.9.1\msvc2015\include\QtCore/qmetatype.h', 00H
	ORG $+4
$SG149808 DB	'qRegisterNormalizedMetaType was called with a not normal'
	DB	'ized type name, please call qRegisterMetaType instead.', 00H
	ORG $+1
$SG149809 DB	'qRegisterNormalizedMetaType', 00H
$SG151988 DB	'H:\QT\5.9.1\msvc2015\include\QtCore/qmetatype.h', 00H
	ORG $+4
$SG151989 DB	'qRegisterNormalizedMetaType was called with a not normal'
	DB	'ized type name, please call qRegisterMetaType instead.', 00H
	ORG $+1
$SG151990 DB	'qRegisterNormalizedMetaType', 00H
$SG150970 DB	'H:\QT\5.9.1\msvc2015\include\QtCore/qmetatype.h', 00H
	ORG $+4
$SG150971 DB	'qRegisterNormalizedMetaType was called with a not normal'
	DB	'ized type name, please call qRegisterMetaType instead.', 00H
	ORG $+1
$SG150972 DB	'qRegisterNormalizedMetaType', 00H
$SG150117 DB	'H:\QT\5.9.1\msvc2015\include\QtCore/qmetatype.h', 00H
	ORG $+4
$SG150118 DB	'qRegisterNormalizedMetaType was called with a not normal'
	DB	'ized type name, please call qRegisterMetaType instead.', 00H
	ORG $+1
$SG150119 DB	'qRegisterNormalizedMetaType', 00H
$SG151280 DB	'H:\QT\5.9.1\msvc2015\include\QtCore/qmetatype.h', 00H
	ORG $+4
$SG151281 DB	'qRegisterNormalizedMetaType was called with a not normal'
	DB	'ized type name, please call qRegisterMetaType instead.', 00H
	ORG $+1
$SG151282 DB	'qRegisterNormalizedMetaType', 00H
?staticMetaObject@MyModuleForm@@2UQMetaObject@@B DD FLAT:?staticMetaObject@WorkWidget@@2UQMetaObject@@B ; MyModuleForm::staticMetaObject
	DD	FLAT:?qt_meta_stringdata_MyModuleForm@@3Uqt_meta_stringdata_MyModuleForm_t@@B
	DD	FLAT:?qt_meta_data_MyModuleForm@@3QBIB
	DD	FLAT:?qt_static_metacall@MyModuleForm@@CAXPAVQObject@@W4Call@QMetaObject@@HPAPAX@Z
	DD	00H
	DD	00H
$SG149497 DB	'H:\QT\5.9.1\msvc2015\include\QtCore/qmetatype.h', 00H
	ORG $+4
$SG149498 DB	'qRegisterNormalizedMetaType was called with a not normal'
	DB	'ized type name, please call qRegisterMetaType instead.', 00H
	ORG $+1
$SG149499 DB	'qRegisterNormalizedMetaType', 00H
CONST	ENDS
PUBLIC	?__empty_global_delete@@YAXPAX@Z		; __empty_global_delete
PUBLIC	?__empty_global_delete@@YAXPAXI@Z		; __empty_global_delete
PUBLIC	??C?$QScopedPointer@VQObjectData@@U?$QScopedPointerDeleter@VQObjectData@@@@@@QBEPAVQObjectData@@XZ ; QScopedPointer<QObjectData,QScopedPointerDeleter<QObjectData> >::operator->
PUBLIC	?metaObject@MyModuleForm@@UBEPBUQMetaObject@@XZ	; MyModuleForm::metaObject
PUBLIC	?qt_metacast@MyModuleForm@@UAEPAXPBD@Z		; MyModuleForm::qt_metacast
PUBLIC	?qt_metacall@MyModuleForm@@UAEHW4Call@QMetaObject@@HPAPAX@Z ; MyModuleForm::qt_metacall
PUBLIC	?metaObject@MyHeader@@UBEPBUQMetaObject@@XZ	; MyHeader::metaObject
PUBLIC	?qt_metacast@MyHeader@@UAEPAXPBD@Z		; MyHeader::qt_metacast
PUBLIC	?qt_metacall@MyHeader@@UAEHW4Call@QMetaObject@@HPAPAX@Z ; MyHeader::qt_metacall
PUBLIC	?qt_static_metacall@MyHeader@@CAXPAVQObject@@W4Call@QMetaObject@@HPAPAX@Z ; MyHeader::qt_static_metacall
PUBLIC	?updateSizes@MyHeader@@QAEXXZ			; MyHeader::updateSizes
PUBLIC	?updateOffset@MyHeader@@QAEXXZ			; MyHeader::updateOffset
PUBLIC	?getSectionSizes@MyHeader@@AAEHHH@Z		; MyHeader::getSectionSizes
PUBLIC	?staticMetaObject@MyHeader@@2UQMetaObject@@B	; MyHeader::staticMetaObject
EXTRN	_strcmp:PROC
EXTRN	__imp_?dynamicMetaObject@QObjectData@@QBEPAUQMetaObject@@XZ:PROC
EXTRN	__imp_?qt_metacast@QHeaderView@@UAEPAXPBD@Z:PROC
EXTRN	__imp_?qt_metacall@QHeaderView@@UAEHW4Call@QMetaObject@@HPAPAX@Z:PROC
EXTRN	__imp_?offset@QHeaderView@@QBEHXZ:PROC
EXTRN	__imp_?sectionSize@QHeaderView@@QBEHH@Z:PROC
EXTRN	__imp_?resizeSection@QHeaderView@@QAEXHH@Z:PROC
EXTRN	__imp_?setOffset@QHeaderView@@QAEXH@Z:PROC
EXTRN	?qt_metacast@WorkWidget@@UAEPAXPBD@Z:PROC	; WorkWidget::qt_metacast
EXTRN	?qt_metacall@WorkWidget@@UAEHW4Call@QMetaObject@@HPAPAX@Z:PROC ; WorkWidget::qt_metacall
EXTRN	?oneStep@MyModuleForm@@AAEXXZ:PROC		; MyModuleForm::oneStep
EXTRN	?allSteps@MyModuleForm@@AAEXXZ:PROC		; MyModuleForm::allSteps
EXTRN	__imp_?staticMetaObject@QHeaderView@@2UQMetaObject@@B:BYTE
_BSS	SEGMENT
?staticMetaObject@MyHeader@@2UQMetaObject@@B DB 018H DUP (?) ; MyHeader::staticMetaObject
_BSS	ENDS
CRT$XCU	SEGMENT
??staticMetaObject$initializer$@MyHeader@@2P6AXXZA@@3P6AXXZA DD FLAT:??__E?staticMetaObject@MyHeader@@2UQMetaObject@@B@@YAXXZ ; ??staticMetaObject$initializer$@MyHeader@@2P6AXXZA@@3P6AXXZA
CRT$XCU	ENDS
; Function compile flags: /Odtp
;	COMDAT ??__E?staticMetaObject@MyHeader@@2UQMetaObject@@B@@YAXXZ
text$di	SEGMENT
??__E?staticMetaObject@MyHeader@@2UQMetaObject@@B@@YAXXZ PROC ; `dynamic initializer for 'MyHeader::staticMetaObject'', COMDAT
; File h:\qtproj\qtclasslibrary1\qtclasslibrary1\generatedfiles\debug\moc_qtclasslibrary1.cpp
; Line 179
	push	ebp
	mov	ebp, esp
; Line 177
	mov	eax, DWORD PTR __imp_?staticMetaObject@QHeaderView@@2UQMetaObject@@B
	mov	DWORD PTR ?staticMetaObject@MyHeader@@2UQMetaObject@@B, eax
	mov	DWORD PTR ?staticMetaObject@MyHeader@@2UQMetaObject@@B+4, OFFSET ?qt_meta_stringdata_MyHeader@@3Uqt_meta_stringdata_MyHeader_t@@B
; Line 178
	mov	DWORD PTR ?staticMetaObject@MyHeader@@2UQMetaObject@@B+8, OFFSET ?qt_meta_data_MyHeader@@3QBIB
	mov	DWORD PTR ?staticMetaObject@MyHeader@@2UQMetaObject@@B+12, OFFSET ?qt_static_metacall@MyHeader@@CAXPAVQObject@@W4Call@QMetaObject@@HPAPAX@Z ; MyHeader::qt_static_metacall
	mov	DWORD PTR ?staticMetaObject@MyHeader@@2UQMetaObject@@B+16, 0
	mov	DWORD PTR ?staticMetaObject@MyHeader@@2UQMetaObject@@B+20, 0
	pop	ebp
	ret	0
??__E?staticMetaObject@MyHeader@@2UQMetaObject@@B@@YAXXZ ENDP ; `dynamic initializer for 'MyHeader::staticMetaObject''
text$di	ENDS
; Function compile flags: /Odtp
;	COMDAT ?getSectionSizes@MyHeader@@AAEHHH@Z
_TEXT	SEGMENT
_this$ = -12						; size = 4
_size$ = -8						; size = 4
_a$1 = -4						; size = 4
_first$ = 8						; size = 4
_second$ = 12						; size = 4
?getSectionSizes@MyHeader@@AAEHHH@Z PROC		; MyHeader::getSectionSizes, COMDAT
; _this$ = ecx
; File h:\qtproj\qtclasslibrary1\qtclasslibrary1\qtclasslibrary1.h
; Line 132
	push	ebp
	mov	ebp, esp
	sub	esp, 12					; 0000000cH
	mov	DWORD PTR _this$[ebp], ecx
; Line 133
	mov	DWORD PTR _size$[ebp], 0
; Line 134
	mov	eax, DWORD PTR _first$[ebp]
	mov	DWORD PTR _a$1[ebp], eax
	jmp	SHORT $LN4@getSection
$LN2@getSection:
	mov	ecx, DWORD PTR _a$1[ebp]
	add	ecx, 1
	mov	DWORD PTR _a$1[ebp], ecx
$LN4@getSection:
	mov	edx, DWORD PTR _a$1[ebp]
	cmp	edx, DWORD PTR _second$[ebp]
	jg	SHORT $LN3@getSection
; Line 135
	mov	eax, DWORD PTR _a$1[ebp]
	push	eax
	mov	ecx, DWORD PTR _this$[ebp]
	mov	ecx, DWORD PTR [ecx+24]
	call	DWORD PTR __imp_?sectionSize@QHeaderView@@QBEHH@Z
	add	eax, DWORD PTR _size$[ebp]
	mov	DWORD PTR _size$[ebp], eax
	jmp	SHORT $LN2@getSection
$LN3@getSection:
; Line 136
	mov	eax, DWORD PTR _size$[ebp]
; Line 137
	mov	esp, ebp
	pop	ebp
	ret	8
?getSectionSizes@MyHeader@@AAEHHH@Z ENDP		; MyHeader::getSectionSizes
_TEXT	ENDS
; Function compile flags: /Odtp
;	COMDAT ?updateOffset@MyHeader@@QAEXXZ
_TEXT	SEGMENT
_this$ = -4						; size = 4
?updateOffset@MyHeader@@QAEXXZ PROC			; MyHeader::updateOffset, COMDAT
; _this$ = ecx
; File h:\qtproj\qtclasslibrary1\qtclasslibrary1\qtclasslibrary1.h
; Line 115
	push	ebp
	mov	ebp, esp
	push	ecx
	mov	DWORD PTR _this$[ebp], ecx
; Line 116
	mov	eax, DWORD PTR _this$[ebp]
	mov	ecx, DWORD PTR [eax+24]
	call	DWORD PTR __imp_?offset@QHeaderView@@QBEHXZ
	push	eax
	mov	ecx, DWORD PTR _this$[ebp]
	call	DWORD PTR __imp_?setOffset@QHeaderView@@QAEXH@Z
; Line 117
	mov	esp, ebp
	pop	ebp
	ret	0
?updateOffset@MyHeader@@QAEXXZ ENDP			; MyHeader::updateOffset
_TEXT	ENDS
; Function compile flags: /Odtp
;	COMDAT ?updateSizes@MyHeader@@QAEXXZ
_TEXT	SEGMENT
_this$ = -4						; size = 4
?updateSizes@MyHeader@@QAEXXZ PROC			; MyHeader::updateSizes, COMDAT
; _this$ = ecx
; File h:\qtproj\qtclasslibrary1\qtclasslibrary1\qtclasslibrary1.h
; Line 109
	push	ebp
	mov	ebp, esp
	push	ecx
	push	esi
	push	edi
	mov	DWORD PTR _this$[ebp], ecx
; Line 110
	mov	eax, DWORD PTR _this$[ebp]
	mov	ecx, DWORD PTR [eax+24]
	call	DWORD PTR __imp_?offset@QHeaderView@@QBEHXZ
	push	eax
	mov	ecx, DWORD PTR _this$[ebp]
	call	DWORD PTR __imp_?setOffset@QHeaderView@@QAEXH@Z
; Line 111
	push	2
	mov	ecx, DWORD PTR _this$[ebp]
	mov	ecx, DWORD PTR [ecx+24]
	call	DWORD PTR __imp_?sectionSize@QHeaderView@@QBEHH@Z
	mov	esi, eax
	push	0
	mov	ecx, DWORD PTR _this$[ebp]
	call	DWORD PTR __imp_?sectionSize@QHeaderView@@QBEHH@Z
	mov	edi, eax
	push	2
	push	0
	mov	ecx, DWORD PTR _this$[ebp]
	call	?getSectionSizes@MyHeader@@AAEHHH@Z	; MyHeader::getSectionSizes
	sub	edi, eax
	add	esi, edi
	push	esi
	push	2
	mov	edx, DWORD PTR _this$[ebp]
	mov	ecx, DWORD PTR [edx+24]
	call	DWORD PTR __imp_?resizeSection@QHeaderView@@QAEXHH@Z
; Line 112
	push	4
	mov	eax, DWORD PTR _this$[ebp]
	mov	ecx, DWORD PTR [eax+24]
	call	DWORD PTR __imp_?sectionSize@QHeaderView@@QBEHH@Z
	mov	esi, eax
	push	1
	mov	ecx, DWORD PTR _this$[ebp]
	call	DWORD PTR __imp_?sectionSize@QHeaderView@@QBEHH@Z
	mov	edi, eax
	push	4
	push	3
	mov	ecx, DWORD PTR _this$[ebp]
	call	?getSectionSizes@MyHeader@@AAEHHH@Z	; MyHeader::getSectionSizes
	sub	edi, eax
	add	esi, edi
	push	esi
	push	4
	mov	ecx, DWORD PTR _this$[ebp]
	mov	ecx, DWORD PTR [ecx+24]
	call	DWORD PTR __imp_?resizeSection@QHeaderView@@QAEXHH@Z
; Line 113
	pop	edi
	pop	esi
	mov	esp, ebp
	pop	ebp
	ret	0
?updateSizes@MyHeader@@QAEXXZ ENDP			; MyHeader::updateSizes
_TEXT	ENDS
; Function compile flags: /Odtp
_TEXT	SEGMENT
__t$1 = -8						; size = 4
tv69 = -4						; size = 4
__o$ = 8						; size = 4
__c$ = 12						; size = 4
__id$ = 16						; size = 4
__a$ = 20						; size = 4
?qt_static_metacall@MyHeader@@CAXPAVQObject@@W4Call@QMetaObject@@HPAPAX@Z PROC ; MyHeader::qt_static_metacall
; File h:\qtproj\qtclasslibrary1\qtclasslibrary1\generatedfiles\debug\moc_qtclasslibrary1.cpp
; Line 163
	push	ebp
	mov	ebp, esp
	sub	esp, 8
; Line 164
	cmp	DWORD PTR __c$[ebp], 0
	jne	SHORT $LN1@qt_static_
; Line 165
	mov	eax, DWORD PTR __o$[ebp]
	mov	DWORD PTR __t$1[ebp], eax
; Line 167
	mov	ecx, DWORD PTR __id$[ebp]
	mov	DWORD PTR tv69[ebp], ecx
	cmp	DWORD PTR tv69[ebp], 0
	je	SHORT $LN5@qt_static_
	cmp	DWORD PTR tv69[ebp], 1
	je	SHORT $LN6@qt_static_
	jmp	SHORT $LN1@qt_static_
$LN5@qt_static_:
; Line 168
	mov	ecx, DWORD PTR __t$1[ebp]
	call	?updateSizes@MyHeader@@QAEXXZ		; MyHeader::updateSizes
	jmp	SHORT $LN1@qt_static_
$LN6@qt_static_:
; Line 169
	mov	ecx, DWORD PTR __t$1[ebp]
	call	?updateOffset@MyHeader@@QAEXXZ		; MyHeader::updateOffset
$LN1@qt_static_:
; Line 174
	mov	esp, ebp
	pop	ebp
	ret	0
?qt_static_metacall@MyHeader@@CAXPAVQObject@@W4Call@QMetaObject@@HPAPAX@Z ENDP ; MyHeader::qt_static_metacall
_TEXT	ENDS
; Function compile flags: /Odtp
_TEXT	SEGMENT
_this$ = -4						; size = 4
__c$ = 8						; size = 4
__id$ = 12						; size = 4
__a$ = 16						; size = 4
?qt_metacall@MyHeader@@UAEHW4Call@QMetaObject@@HPAPAX@Z PROC ; MyHeader::qt_metacall
; _this$ = ecx
; File h:\qtproj\qtclasslibrary1\qtclasslibrary1\generatedfiles\debug\moc_qtclasslibrary1.cpp
; Line 196
	push	ebp
	mov	ebp, esp
	push	ecx
	mov	DWORD PTR _this$[ebp], ecx
; Line 197
	mov	eax, DWORD PTR __a$[ebp]
	push	eax
	mov	ecx, DWORD PTR __id$[ebp]
	push	ecx
	mov	edx, DWORD PTR __c$[ebp]
	push	edx
	mov	ecx, DWORD PTR _this$[ebp]
	call	DWORD PTR __imp_?qt_metacall@QHeaderView@@UAEHW4Call@QMetaObject@@HPAPAX@Z
	mov	DWORD PTR __id$[ebp], eax
; Line 198
	cmp	DWORD PTR __id$[ebp], 0
	jge	SHORT $LN2@qt_metacal
; Line 199
	mov	eax, DWORD PTR __id$[ebp]
	jmp	SHORT $LN1@qt_metacal
$LN2@qt_metacal:
; Line 200
	cmp	DWORD PTR __c$[ebp], 0
	jne	SHORT $LN3@qt_metacal
; Line 201
	cmp	DWORD PTR __id$[ebp], 2
	jge	SHORT $LN5@qt_metacal
; Line 202
	mov	eax, DWORD PTR __a$[ebp]
	push	eax
	mov	ecx, DWORD PTR __id$[ebp]
	push	ecx
	mov	edx, DWORD PTR __c$[ebp]
	push	edx
	mov	eax, DWORD PTR _this$[ebp]
	push	eax
	call	?qt_static_metacall@MyHeader@@CAXPAVQObject@@W4Call@QMetaObject@@HPAPAX@Z ; MyHeader::qt_static_metacall
	add	esp, 16					; 00000010H
$LN5@qt_metacal:
; Line 203
	mov	ecx, DWORD PTR __id$[ebp]
	sub	ecx, 2
	mov	DWORD PTR __id$[ebp], ecx
	jmp	SHORT $LN4@qt_metacal
$LN3@qt_metacal:
; Line 204
	cmp	DWORD PTR __c$[ebp], 12			; 0000000cH
	jne	SHORT $LN4@qt_metacal
; Line 205
	cmp	DWORD PTR __id$[ebp], 2
	jge	SHORT $LN7@qt_metacal
; Line 206
	mov	edx, 4
	imul	eax, edx, 0
	mov	ecx, DWORD PTR __a$[ebp]
	mov	edx, DWORD PTR [ecx+eax]
	mov	DWORD PTR [edx], -1
$LN7@qt_metacal:
; Line 207
	mov	eax, DWORD PTR __id$[ebp]
	sub	eax, 2
	mov	DWORD PTR __id$[ebp], eax
$LN4@qt_metacal:
; Line 209
	mov	eax, DWORD PTR __id$[ebp]
$LN1@qt_metacal:
; Line 210
	mov	esp, ebp
	pop	ebp
	ret	12					; 0000000cH
?qt_metacall@MyHeader@@UAEHW4Call@QMetaObject@@HPAPAX@Z ENDP ; MyHeader::qt_metacall
_TEXT	ENDS
; Function compile flags: /Odtp
_TEXT	SEGMENT
_this$ = -4						; size = 4
__clname$ = 8						; size = 4
?qt_metacast@MyHeader@@UAEPAXPBD@Z PROC			; MyHeader::qt_metacast
; _this$ = ecx
; File h:\qtproj\qtclasslibrary1\qtclasslibrary1\generatedfiles\debug\moc_qtclasslibrary1.cpp
; Line 188
	push	ebp
	mov	ebp, esp
	push	ecx
	mov	DWORD PTR _this$[ebp], ecx
; Line 189
	cmp	DWORD PTR __clname$[ebp], 0
	jne	SHORT $LN2@qt_metacas
	xor	eax, eax
	jmp	SHORT $LN1@qt_metacas
$LN2@qt_metacas:
; Line 190
	push	OFFSET ?qt_meta_stringdata_MyHeader@@3Uqt_meta_stringdata_MyHeader_t@@B+64
	mov	eax, DWORD PTR __clname$[ebp]
	push	eax
	call	_strcmp
	add	esp, 8
	test	eax, eax
	jne	SHORT $LN3@qt_metacas
; Line 191
	mov	eax, DWORD PTR _this$[ebp]
	jmp	SHORT $LN1@qt_metacas
$LN3@qt_metacas:
; Line 192
	mov	ecx, DWORD PTR __clname$[ebp]
	push	ecx
	mov	ecx, DWORD PTR _this$[ebp]
	call	DWORD PTR __imp_?qt_metacast@QHeaderView@@UAEPAXPBD@Z
$LN1@qt_metacas:
; Line 193
	mov	esp, ebp
	pop	ebp
	ret	4
?qt_metacast@MyHeader@@UAEPAXPBD@Z ENDP			; MyHeader::qt_metacast
_TEXT	ENDS
; Function compile flags: /Odtp
_TEXT	SEGMENT
tv82 = -8						; size = 4
_this$ = -4						; size = 4
?metaObject@MyHeader@@UBEPBUQMetaObject@@XZ PROC	; MyHeader::metaObject
; _this$ = ecx
; File h:\qtproj\qtclasslibrary1\qtclasslibrary1\generatedfiles\debug\moc_qtclasslibrary1.cpp
; Line 183
	push	ebp
	mov	ebp, esp
	sub	esp, 8
	mov	DWORD PTR _this$[ebp], ecx
; Line 184
	mov	ecx, DWORD PTR _this$[ebp]
	add	ecx, 4
	call	??C?$QScopedPointer@VQObjectData@@U?$QScopedPointerDeleter@VQObjectData@@@@@@QBEPAVQObjectData@@XZ ; QScopedPointer<QObjectData,QScopedPointerDeleter<QObjectData> >::operator->
	cmp	DWORD PTR [eax+24], 0
	je	SHORT $LN3@metaObject
	mov	ecx, DWORD PTR _this$[ebp]
	add	ecx, 4
	call	??C?$QScopedPointer@VQObjectData@@U?$QScopedPointerDeleter@VQObjectData@@@@@@QBEPAVQObjectData@@XZ ; QScopedPointer<QObjectData,QScopedPointerDeleter<QObjectData> >::operator->
	mov	ecx, eax
	call	DWORD PTR __imp_?dynamicMetaObject@QObjectData@@QBEPAUQMetaObject@@XZ
	mov	DWORD PTR tv82[ebp], eax
	jmp	SHORT $LN4@metaObject
$LN3@metaObject:
	mov	DWORD PTR tv82[ebp], OFFSET ?staticMetaObject@MyHeader@@2UQMetaObject@@B ; MyHeader::staticMetaObject
$LN4@metaObject:
	mov	eax, DWORD PTR tv82[ebp]
; Line 185
	mov	esp, ebp
	pop	ebp
	ret	0
?metaObject@MyHeader@@UBEPBUQMetaObject@@XZ ENDP	; MyHeader::metaObject
_TEXT	ENDS
; Function compile flags: /Odtp
_TEXT	SEGMENT
__t$1 = -8						; size = 4
tv69 = -4						; size = 4
__o$ = 8						; size = 4
__c$ = 12						; size = 4
__id$ = 16						; size = 4
__a$ = 20						; size = 4
?qt_static_metacall@MyModuleForm@@CAXPAVQObject@@W4Call@QMetaObject@@HPAPAX@Z PROC ; MyModuleForm::qt_static_metacall
; File h:\qtproj\qtclasslibrary1\qtclasslibrary1\generatedfiles\debug\moc_qtclasslibrary1.cpp
; Line 69
	push	ebp
	mov	ebp, esp
	sub	esp, 8
; Line 70
	cmp	DWORD PTR __c$[ebp], 0
	jne	SHORT $LN1@qt_static_
; Line 71
	mov	eax, DWORD PTR __o$[ebp]
	mov	DWORD PTR __t$1[ebp], eax
; Line 73
	mov	ecx, DWORD PTR __id$[ebp]
	mov	DWORD PTR tv69[ebp], ecx
	cmp	DWORD PTR tv69[ebp], 0
	je	SHORT $LN5@qt_static_
	cmp	DWORD PTR tv69[ebp], 1
	je	SHORT $LN6@qt_static_
	jmp	SHORT $LN1@qt_static_
$LN5@qt_static_:
; Line 74
	mov	ecx, DWORD PTR __t$1[ebp]
	call	?oneStep@MyModuleForm@@AAEXXZ		; MyModuleForm::oneStep
	jmp	SHORT $LN1@qt_static_
$LN6@qt_static_:
; Line 75
	mov	ecx, DWORD PTR __t$1[ebp]
	call	?allSteps@MyModuleForm@@AAEXXZ		; MyModuleForm::allSteps
$LN1@qt_static_:
; Line 80
	mov	esp, ebp
	pop	ebp
	ret	0
?qt_static_metacall@MyModuleForm@@CAXPAVQObject@@W4Call@QMetaObject@@HPAPAX@Z ENDP ; MyModuleForm::qt_static_metacall
_TEXT	ENDS
; Function compile flags: /Odtp
_TEXT	SEGMENT
_this$ = -4						; size = 4
__c$ = 8						; size = 4
__id$ = 12						; size = 4
__a$ = 16						; size = 4
?qt_metacall@MyModuleForm@@UAEHW4Call@QMetaObject@@HPAPAX@Z PROC ; MyModuleForm::qt_metacall
; _this$ = ecx
; File h:\qtproj\qtclasslibrary1\qtclasslibrary1\generatedfiles\debug\moc_qtclasslibrary1.cpp
; Line 102
	push	ebp
	mov	ebp, esp
	push	ecx
	mov	DWORD PTR _this$[ebp], ecx
; Line 103
	mov	eax, DWORD PTR __a$[ebp]
	push	eax
	mov	ecx, DWORD PTR __id$[ebp]
	push	ecx
	mov	edx, DWORD PTR __c$[ebp]
	push	edx
	mov	ecx, DWORD PTR _this$[ebp]
	call	?qt_metacall@WorkWidget@@UAEHW4Call@QMetaObject@@HPAPAX@Z ; WorkWidget::qt_metacall
	mov	DWORD PTR __id$[ebp], eax
; Line 104
	cmp	DWORD PTR __id$[ebp], 0
	jge	SHORT $LN2@qt_metacal
; Line 105
	mov	eax, DWORD PTR __id$[ebp]
	jmp	SHORT $LN1@qt_metacal
$LN2@qt_metacal:
; Line 106
	cmp	DWORD PTR __c$[ebp], 0
	jne	SHORT $LN3@qt_metacal
; Line 107
	cmp	DWORD PTR __id$[ebp], 2
	jge	SHORT $LN5@qt_metacal
; Line 108
	mov	eax, DWORD PTR __a$[ebp]
	push	eax
	mov	ecx, DWORD PTR __id$[ebp]
	push	ecx
	mov	edx, DWORD PTR __c$[ebp]
	push	edx
	mov	eax, DWORD PTR _this$[ebp]
	push	eax
	call	?qt_static_metacall@MyModuleForm@@CAXPAVQObject@@W4Call@QMetaObject@@HPAPAX@Z ; MyModuleForm::qt_static_metacall
	add	esp, 16					; 00000010H
$LN5@qt_metacal:
; Line 109
	mov	ecx, DWORD PTR __id$[ebp]
	sub	ecx, 2
	mov	DWORD PTR __id$[ebp], ecx
	jmp	SHORT $LN4@qt_metacal
$LN3@qt_metacal:
; Line 110
	cmp	DWORD PTR __c$[ebp], 12			; 0000000cH
	jne	SHORT $LN4@qt_metacal
; Line 111
	cmp	DWORD PTR __id$[ebp], 2
	jge	SHORT $LN7@qt_metacal
; Line 112
	mov	edx, 4
	imul	eax, edx, 0
	mov	ecx, DWORD PTR __a$[ebp]
	mov	edx, DWORD PTR [ecx+eax]
	mov	DWORD PTR [edx], -1
$LN7@qt_metacal:
; Line 113
	mov	eax, DWORD PTR __id$[ebp]
	sub	eax, 2
	mov	DWORD PTR __id$[ebp], eax
$LN4@qt_metacal:
; Line 115
	mov	eax, DWORD PTR __id$[ebp]
$LN1@qt_metacal:
; Line 116
	mov	esp, ebp
	pop	ebp
	ret	12					; 0000000cH
?qt_metacall@MyModuleForm@@UAEHW4Call@QMetaObject@@HPAPAX@Z ENDP ; MyModuleForm::qt_metacall
_TEXT	ENDS
; Function compile flags: /Odtp
_TEXT	SEGMENT
_this$ = -4						; size = 4
__clname$ = 8						; size = 4
?qt_metacast@MyModuleForm@@UAEPAXPBD@Z PROC		; MyModuleForm::qt_metacast
; _this$ = ecx
; File h:\qtproj\qtclasslibrary1\qtclasslibrary1\generatedfiles\debug\moc_qtclasslibrary1.cpp
; Line 94
	push	ebp
	mov	ebp, esp
	push	ecx
	mov	DWORD PTR _this$[ebp], ecx
; Line 95
	cmp	DWORD PTR __clname$[ebp], 0
	jne	SHORT $LN2@qt_metacas
	xor	eax, eax
	jmp	SHORT $LN1@qt_metacas
$LN2@qt_metacas:
; Line 96
	push	OFFSET ?qt_meta_stringdata_MyModuleForm@@3Uqt_meta_stringdata_MyModuleForm_t@@B+64
	mov	eax, DWORD PTR __clname$[ebp]
	push	eax
	call	_strcmp
	add	esp, 8
	test	eax, eax
	jne	SHORT $LN3@qt_metacas
; Line 97
	mov	eax, DWORD PTR _this$[ebp]
	jmp	SHORT $LN1@qt_metacas
$LN3@qt_metacas:
; Line 98
	mov	ecx, DWORD PTR __clname$[ebp]
	push	ecx
	mov	ecx, DWORD PTR _this$[ebp]
	call	?qt_metacast@WorkWidget@@UAEPAXPBD@Z	; WorkWidget::qt_metacast
$LN1@qt_metacas:
; Line 99
	mov	esp, ebp
	pop	ebp
	ret	4
?qt_metacast@MyModuleForm@@UAEPAXPBD@Z ENDP		; MyModuleForm::qt_metacast
_TEXT	ENDS
; Function compile flags: /Odtp
_TEXT	SEGMENT
tv82 = -8						; size = 4
_this$ = -4						; size = 4
?metaObject@MyModuleForm@@UBEPBUQMetaObject@@XZ PROC	; MyModuleForm::metaObject
; _this$ = ecx
; File h:\qtproj\qtclasslibrary1\qtclasslibrary1\generatedfiles\debug\moc_qtclasslibrary1.cpp
; Line 89
	push	ebp
	mov	ebp, esp
	sub	esp, 8
	mov	DWORD PTR _this$[ebp], ecx
; Line 90
	mov	ecx, DWORD PTR _this$[ebp]
	add	ecx, 4
	call	??C?$QScopedPointer@VQObjectData@@U?$QScopedPointerDeleter@VQObjectData@@@@@@QBEPAVQObjectData@@XZ ; QScopedPointer<QObjectData,QScopedPointerDeleter<QObjectData> >::operator->
	cmp	DWORD PTR [eax+24], 0
	je	SHORT $LN3@metaObject
	mov	ecx, DWORD PTR _this$[ebp]
	add	ecx, 4
	call	??C?$QScopedPointer@VQObjectData@@U?$QScopedPointerDeleter@VQObjectData@@@@@@QBEPAVQObjectData@@XZ ; QScopedPointer<QObjectData,QScopedPointerDeleter<QObjectData> >::operator->
	mov	ecx, eax
	call	DWORD PTR __imp_?dynamicMetaObject@QObjectData@@QBEPAUQMetaObject@@XZ
	mov	DWORD PTR tv82[ebp], eax
	jmp	SHORT $LN4@metaObject
$LN3@metaObject:
	mov	DWORD PTR tv82[ebp], OFFSET ?staticMetaObject@MyModuleForm@@2UQMetaObject@@B ; MyModuleForm::staticMetaObject
$LN4@metaObject:
	mov	eax, DWORD PTR tv82[ebp]
; Line 91
	mov	esp, ebp
	pop	ebp
	ret	0
?metaObject@MyModuleForm@@UBEPBUQMetaObject@@XZ ENDP	; MyModuleForm::metaObject
_TEXT	ENDS
; Function compile flags: /Odtp
;	COMDAT ??C?$QScopedPointer@VQObjectData@@U?$QScopedPointerDeleter@VQObjectData@@@@@@QBEPAVQObjectData@@XZ
_TEXT	SEGMENT
_this$ = -4						; size = 4
??C?$QScopedPointer@VQObjectData@@U?$QScopedPointerDeleter@VQObjectData@@@@@@QBEPAVQObjectData@@XZ PROC ; QScopedPointer<QObjectData,QScopedPointerDeleter<QObjectData> >::operator->, COMDAT
; _this$ = ecx
; File h:\qt\5.9.1\msvc2015\include\qtcore\qscopedpointer.h
; Line 117
	push	ebp
	mov	ebp, esp
	push	ecx
	mov	DWORD PTR _this$[ebp], ecx
; Line 118
	mov	eax, DWORD PTR _this$[ebp]
	mov	eax, DWORD PTR [eax]
; Line 119
	mov	esp, ebp
	pop	ebp
	ret	0
??C?$QScopedPointer@VQObjectData@@U?$QScopedPointerDeleter@VQObjectData@@@@@@QBEPAVQObjectData@@XZ ENDP ; QScopedPointer<QObjectData,QScopedPointerDeleter<QObjectData> >::operator->
_TEXT	ENDS
; Function compile flags: /Odtp
;	COMDAT ?__empty_global_delete@@YAXPAXI@Z
_TEXT	SEGMENT
___formal$ = 8						; size = 4
___formal$ = 12						; size = 4
?__empty_global_delete@@YAXPAXI@Z PROC			; __empty_global_delete, COMDAT
; File h:\qtproj\qtclasslibrary1\qtclasslibrary1\generatedfiles\debug\moc_qtclasslibrary1.cpp
; Line 213
	push	ebp
	mov	ebp, esp
	pop	ebp
	ret	0
?__empty_global_delete@@YAXPAXI@Z ENDP			; __empty_global_delete
_TEXT	ENDS
; Function compile flags: /Odtp
;	COMDAT ?__empty_global_delete@@YAXPAX@Z
_TEXT	SEGMENT
___formal$ = 8						; size = 4
?__empty_global_delete@@YAXPAX@Z PROC			; __empty_global_delete, COMDAT
; File h:\qtproj\qtclasslibrary1\qtclasslibrary1\generatedfiles\debug\moc_qtclasslibrary1.cpp
; Line 213
	push	ebp
	mov	ebp, esp
	pop	ebp
	ret	0
?__empty_global_delete@@YAXPAX@Z ENDP			; __empty_global_delete
_TEXT	ENDS
END
